
photon.elf:     file format elf32-littleriscv


Disassembly of section .text:

00000000 <_start>:
   0:	00001117          	auipc	sp,0x1
   4:	14010113          	addi	sp,sp,320 # 1140 <_sp0>
   8:	00000097          	auipc	ra,0x0
   c:	00c08093          	addi	ra,ra,12 # 14 <_endloop>
  10:	008000ef          	jal	ra,18 <main>

00000014 <_endloop>:
  14:	0000006f          	j	14 <_endloop>

00000018 <main>:
  18:	fc010113          	addi	sp,sp,-64
  1c:	02812e23          	sw	s0,60(sp)
  20:	04010413          	addi	s0,sp,64
  24:	fe042623          	sw	zero,-20(s0)
  28:	fc042423          	sw	zero,-56(s0) # Initialize result array
  2c:	fc042623          	sw	zero,-52(s0)
  30:	fc042823          	sw	zero,-48(s0)
  34:	fc042a23          	sw	zero,-44(s0)
  38:	fc042c23          	sw	zero,-40(s0)
  3c:	fc042e23          	sw	zero,-36(s0)
  40:	fe042023          	sw	zero,-32(s0)
  44:	fe042223          	sw	zero,-28(s0)

	48: 00000513          	li	a0,0 # Load input data into RISC-V registers
	# 000000000000 00000000 01010 0010011
	4c: 00000593          	li	a1,0
	# 000000000000 00000000 01011 0010011
	50: 00000613          	li	a2,0
	# 000000000000 00000000 01100 0010011
	54: 00000693          	li	a3,0
	# 000000000000 00000000 01101 0010011
	58: 00000713          	li	a4,0
	# 000000000000 00000000 01110 0010011
	5c: 00000793          	li	a5,0
	# 000000000000 00000000 01111 0010011
	60: 00000813          	li	a6,0
	# 000000000000 00000000 10000 0010011
	64:	003828B7          	lui	a7,0x382 # Load 32-bit number
	# 00000000001110000010 10001 0110111
	68:	02088893          	addi	a7,a7,32 # 382020 <_sp0+0x380f20>
	# 000000100000 10001 000 10001 0010011
	6c: 00000013          	nop

	70:	5000012B          	psw	a0,hash[0] # Load data from RISC-V to Photon
	# [31:27]=core_reg; [26:25]=unused ; [24:22]=Photon_reg; [21:12]=unused; [11:7]=00010; [6:0]=0101011
	# 01010 00 000 0000000000 00010 0101011
	74: 5840012B          	psw	a1,hash[1]
	# 01011 00 001 0000000000 00010 0101011
	78: 6080012B          	psw	a2,hash[2]
	# 01100 00 010 0000000000 00010 0101011
	7c: 68C0012B          	psw	a3,hash[3]
	# 01101 00 011 0000000000 00010 0101011
	80: 7100012B          	psw	a4,hash[4]
	# 01110 00 100 0000000000 00010 0101011
	84: 7940012B          	psw	a5,hash[5]
	# 01111 00 101 0000000000 00010 0101011
	88: 8180012B          	psw	a6,hash[6]
	# 10000 00 110 0000000000 00010 0101011
	8c: 89C0012B          	psw	a7,hash[7]
	# 10001 00 111 0000000000 00010 0101011

  90:	000001AB						hash					# Start hashing
	# 0000000000000000000 00011 0101011
	; 94:	00000000          	hlw	a5,ctrl			# Read ctrl reg
  94:	7800022B          	pck	# Read ctrl reg
	# [31:27]=core_reg; [26:12]=unused; [11:7]=00100; [6:0]=0101011
	# 01111 000000000000000 00100 0101011
  98:	00000013          	nop
  9c:	00000013          	nop
  a0:	00000013          	nop
  a4:	00000013          	nop
  a8:	fe0786e3          	beqz	a5,94 <main+0x7c>
	; a8:	00000013          	nop

	ac:	500000AB          	plw	a0,hash[0] # Read hash result from Photon
	# [31:27]=core_reg; [26:25]=unused ; [24:22]=Photon_reg; [21:12]=unused; [11:7]=00001; [6:0]=0101011
	# 01010 00 000 0000000000 00001 0101011
	b0: 584000AB          	plw	a1,hash[1]
	# 01011 00 001 0000000000 00001 0101011
	b4: 608000AB          	plw	a2,hash[2]
	# 01100 00 010 0000000000 00001 0101011
	b8: 68C000AB          	plw	a3,hash[3]
	# 01101 00 011 0000000000 00001 0101011
	bc: 710000AB          	plw	a4,hash[4]
	# 01110 00 100 0000000000 00001 0101011
	c0: 794000AB          	plw	a5,hash[5]
	# 01111 00 101 0000000000 00001 0101011
	c4: 818000AB          	plw	a6,hash[6]
	# 10000 00 110 0000000000 00001 0101011
	c8: 89C000AB          	plw	a7,hash[7]
	# 10001 00 111 0000000000 00001 0101011

# TODO Move from RISC-V registers into result array
;   cc:	fec42783          	lw	a5,-20(s0)
;   d0:	fcf42423          	sw	a5,-56(s0)
;   d4:	fec42783          	lw	a5,-20(s0)
;   d8:	fcf42623          	sw	a5,-52(s0)
;   dc:	fec42783          	lw	a5,-20(s0)
;   e0:	fcf42823          	sw	a5,-48(s0)
;   e4:	fec42783          	lw	a5,-20(s0)
;   e8:	fcf42a23          	sw	a5,-44(s0)
;   ec:	fec42783          	lw	a5,-20(s0)
;   f0:	fcf42c23          	sw	a5,-40(s0)
;   f4:	fec42783          	lw	a5,-20(s0)
;   f8:	fcf42e23          	sw	a5,-36(s0)
;   fc:	fec42783          	lw	a5,-20(s0)
;  100:	fef42023          	sw	a5,-32(s0)
;  104:	fec42783          	lw	a5,-20(s0)
;  108:	fef42223          	sw	a5,-28(s0)
  cc:	00000013          	nop
  d0:	00000013          	nop
  d4:	00000013          	nop
  d8:	00000013          	nop
  dc:	00000013          	nop
  e0:	00000013          	nop
  e4:	00000013          	nop
  e8:	00000013          	nop
  ec:	00000013          	nop
  f0:	00000013          	nop
  f4:	00000013          	nop
  f8:	00000013          	nop
  fc:	00000013          	nop
 100:	00000013          	nop
 104:	00000013          	nop
 108:	00000013          	nop

 10c:	00000793          	li	a5,0
 110:	00078513          	mv	a0,a5
 114:	03c12403          	lw	s0,60(sp)
 118:	04010113          	addi	sp,sp,64
 11c:	00008067          	ret
