
quicksort.elf:     file format elf32-littleriscv


Disassembly of section .text:

00000000 <_start>:
       0:	00002117          	auipc	sp,0x2
       4:	10010113          	addi	sp,sp,256 # 2100 <_sp0>
       8:	00000097          	auipc	ra,0x0
       c:	00c08093          	addi	ra,ra,12 # 14 <_endloop>
      10:	34c000ef          	jal	ra,35c <main>

00000014 <_endloop>:
      14:	0000006f          	j	14 <_endloop>

00000018 <swap>:
      18:	fd010113          	addi	sp,sp,-48
      1c:	02812623          	sw	s0,44(sp)
      20:	03010413          	addi	s0,sp,48
      24:	fca42e23          	sw	a0,-36(s0)
      28:	fcb42c23          	sw	a1,-40(s0)
      2c:	fdc42783          	lw	a5,-36(s0)
      30:	0007a783          	lw	a5,0(a5)
      34:	fef42623          	sw	a5,-20(s0)
      38:	fd842783          	lw	a5,-40(s0)
      3c:	0007a703          	lw	a4,0(a5)
      40:	fdc42783          	lw	a5,-36(s0)
      44:	00e7a023          	sw	a4,0(a5)
      48:	fd842783          	lw	a5,-40(s0)
      4c:	fec42703          	lw	a4,-20(s0)
      50:	00e7a023          	sw	a4,0(a5)
      54:	00000013          	nop
      58:	02c12403          	lw	s0,44(sp)
      5c:	03010113          	addi	sp,sp,48
      60:	00008067          	ret

00000064 <partition>:
      64:	fd010113          	addi	sp,sp,-48
      68:	02112623          	sw	ra,44(sp)
      6c:	02812423          	sw	s0,40(sp)
      70:	03010413          	addi	s0,sp,48
      74:	fca42e23          	sw	a0,-36(s0)
      78:	fcb42c23          	sw	a1,-40(s0)
      7c:	fcc42a23          	sw	a2,-44(s0)
      80:	fd442783          	lw	a5,-44(s0)
      84:	00279793          	slli	a5,a5,0x2
      88:	fdc42703          	lw	a4,-36(s0)
      8c:	00f707b3          	add	a5,a4,a5
      90:	0007a783          	lw	a5,0(a5)
      94:	fef42223          	sw	a5,-28(s0)
      98:	fd842783          	lw	a5,-40(s0)
      9c:	fff78793          	addi	a5,a5,-1
      a0:	fef42623          	sw	a5,-20(s0)
      a4:	fd842783          	lw	a5,-40(s0)
      a8:	fef42423          	sw	a5,-24(s0)
      ac:	0640006f          	j	110 <partition+0xac>
      b0:	fe842783          	lw	a5,-24(s0)
      b4:	00279793          	slli	a5,a5,0x2
      b8:	fdc42703          	lw	a4,-36(s0)
      bc:	00f707b3          	add	a5,a4,a5
      c0:	0007a783          	lw	a5,0(a5)
      c4:	fe442703          	lw	a4,-28(s0)
      c8:	02e7de63          	ble	a4,a5,104 <partition+0xa0>
      cc:	fec42783          	lw	a5,-20(s0)
      d0:	00178793          	addi	a5,a5,1
      d4:	fef42623          	sw	a5,-20(s0)
      d8:	fec42783          	lw	a5,-20(s0)
      dc:	00279793          	slli	a5,a5,0x2
      e0:	fdc42703          	lw	a4,-36(s0)
      e4:	00f706b3          	add	a3,a4,a5
      e8:	fe842783          	lw	a5,-24(s0)
      ec:	00279793          	slli	a5,a5,0x2
      f0:	fdc42703          	lw	a4,-36(s0)
      f4:	00f707b3          	add	a5,a4,a5
      f8:	00078593          	mv	a1,a5
      fc:	00068513          	mv	a0,a3
     100:	f19ff0ef          	jal	ra,18 <swap>
     104:	fe842783          	lw	a5,-24(s0)
     108:	00178793          	addi	a5,a5,1
     10c:	fef42423          	sw	a5,-24(s0)
     110:	fd442783          	lw	a5,-44(s0)
     114:	fff78793          	addi	a5,a5,-1
     118:	fe842703          	lw	a4,-24(s0)
     11c:	f8e7dae3          	ble	a4,a5,b0 <partition+0x4c>
     120:	fec42783          	lw	a5,-20(s0)
     124:	00178793          	addi	a5,a5,1
     128:	00279793          	slli	a5,a5,0x2
     12c:	fdc42703          	lw	a4,-36(s0)
     130:	00f706b3          	add	a3,a4,a5
     134:	fd442783          	lw	a5,-44(s0)
     138:	00279793          	slli	a5,a5,0x2
     13c:	fdc42703          	lw	a4,-36(s0)
     140:	00f707b3          	add	a5,a4,a5
     144:	00078593          	mv	a1,a5
     148:	00068513          	mv	a0,a3
     14c:	ecdff0ef          	jal	ra,18 <swap>
     150:	fec42783          	lw	a5,-20(s0)
     154:	00178793          	addi	a5,a5,1
     158:	00078513          	mv	a0,a5
     15c:	02c12083          	lw	ra,44(sp)
     160:	02812403          	lw	s0,40(sp)
     164:	03010113          	addi	sp,sp,48
     168:	00008067          	ret

0000016c <quicksort>:
     16c:	fd010113          	addi	sp,sp,-48
     170:	02112623          	sw	ra,44(sp)
     174:	02812423          	sw	s0,40(sp)
     178:	03010413          	addi	s0,sp,48
     17c:	fca42e23          	sw	a0,-36(s0)
     180:	fcb42c23          	sw	a1,-40(s0)
     184:	fcc42a23          	sw	a2,-44(s0)
     188:	fd842703          	lw	a4,-40(s0)
     18c:	fd442783          	lw	a5,-44(s0)
     190:	04f75463          	ble	a5,a4,1d8 <quicksort+0x6c>
     194:	fd442603          	lw	a2,-44(s0)
     198:	fd842583          	lw	a1,-40(s0)
     19c:	fdc42503          	lw	a0,-36(s0)
     1a0:	ec5ff0ef          	jal	ra,64 <partition>
     1a4:	fea42623          	sw	a0,-20(s0)
     1a8:	fec42783          	lw	a5,-20(s0)
     1ac:	fff78793          	addi	a5,a5,-1
     1b0:	00078613          	mv	a2,a5
     1b4:	fd842583          	lw	a1,-40(s0)
     1b8:	fdc42503          	lw	a0,-36(s0)
     1bc:	fb1ff0ef          	jal	ra,16c <quicksort>
     1c0:	fec42783          	lw	a5,-20(s0)
     1c4:	00178793          	addi	a5,a5,1
     1c8:	fd442603          	lw	a2,-44(s0)
     1cc:	00078593          	mv	a1,a5
     1d0:	fdc42503          	lw	a0,-36(s0)
     1d4:	f99ff0ef          	jal	ra,16c <quicksort>
     1d8:	00000013          	nop
     1dc:	02c12083          	lw	ra,44(sp)
     1e0:	02812403          	lw	s0,40(sp)
     1e4:	03010113          	addi	sp,sp,48
     1e8:	00008067          	ret

000001ec <send_int>:
     1ec:	fd010113          	addi	sp,sp,-48
     1f0:	02112623          	sw	ra,44(sp)
     1f4:	02812423          	sw	s0,40(sp)
     1f8:	03010413          	addi	s0,sp,48
     1fc:	fca42e23          	sw	a0,-36(s0)
     200:	fdc42783          	lw	a5,-36(s0)
     204:	fef407a3          	sb	a5,-17(s0)
     208:	fef44783          	lbu	a5,-17(s0)
     20c:	00078513          	mv	a0,a5
     210:	388000ef          	jal	ra,598 <uart_put>
     214:	fdc42783          	lw	a5,-36(s0)
     218:	4087d793          	srai	a5,a5,0x8
     21c:	fef407a3          	sb	a5,-17(s0)
     220:	fef44783          	lbu	a5,-17(s0)
     224:	00078513          	mv	a0,a5
     228:	370000ef          	jal	ra,598 <uart_put>
     22c:	fdc42783          	lw	a5,-36(s0)
     230:	4107d793          	srai	a5,a5,0x10
     234:	fef407a3          	sb	a5,-17(s0)
     238:	fef44783          	lbu	a5,-17(s0)
     23c:	00078513          	mv	a0,a5
     240:	358000ef          	jal	ra,598 <uart_put>
     244:	fdc42783          	lw	a5,-36(s0)
     248:	4187d793          	srai	a5,a5,0x18
     24c:	fef407a3          	sb	a5,-17(s0)
     250:	fef44783          	lbu	a5,-17(s0)
     254:	00078513          	mv	a0,a5
     258:	340000ef          	jal	ra,598 <uart_put>
     25c:	00000013          	nop
     260:	02c12083          	lw	ra,44(sp)
     264:	02812403          	lw	s0,40(sp)
     268:	03010113          	addi	sp,sp,48
     26c:	00008067          	ret

00000270 <recv_int>:
     270:	fe010113          	addi	sp,sp,-32
     274:	00112e23          	sw	ra,28(sp)
     278:	00812c23          	sw	s0,24(sp)
     27c:	02010413          	addi	s0,sp,32
     280:	410000ef          	jal	ra,690 <uart_read_blocking>
     284:	00050793          	mv	a5,a0
     288:	fef407a3          	sb	a5,-17(s0)
     28c:	fef44783          	lbu	a5,-17(s0)
     290:	fef42423          	sw	a5,-24(s0)
     294:	3fc000ef          	jal	ra,690 <uart_read_blocking>
     298:	00050793          	mv	a5,a0
     29c:	fef407a3          	sb	a5,-17(s0)
     2a0:	fef44783          	lbu	a5,-17(s0)
     2a4:	00879793          	slli	a5,a5,0x8
     2a8:	fe842703          	lw	a4,-24(s0)
     2ac:	00f767b3          	or	a5,a4,a5
     2b0:	fef42423          	sw	a5,-24(s0)
     2b4:	3dc000ef          	jal	ra,690 <uart_read_blocking>
     2b8:	00050793          	mv	a5,a0
     2bc:	fef407a3          	sb	a5,-17(s0)
     2c0:	fef44783          	lbu	a5,-17(s0)
     2c4:	01079793          	slli	a5,a5,0x10
     2c8:	fe842703          	lw	a4,-24(s0)
     2cc:	00f767b3          	or	a5,a4,a5
     2d0:	fef42423          	sw	a5,-24(s0)
     2d4:	3bc000ef          	jal	ra,690 <uart_read_blocking>
     2d8:	00050793          	mv	a5,a0
     2dc:	fef407a3          	sb	a5,-17(s0)
     2e0:	fef44783          	lbu	a5,-17(s0)
     2e4:	01879793          	slli	a5,a5,0x18
     2e8:	fe842703          	lw	a4,-24(s0)
     2ec:	00f767b3          	or	a5,a4,a5
     2f0:	fef42423          	sw	a5,-24(s0)
     2f4:	fe842783          	lw	a5,-24(s0)
     2f8:	00078513          	mv	a0,a5
     2fc:	01c12083          	lw	ra,28(sp)
     300:	01812403          	lw	s0,24(sp)
     304:	02010113          	addi	sp,sp,32
     308:	00008067          	ret

0000030c <tx_fifo_empty>:
     30c:	fe010113          	addi	sp,sp,-32
     310:	00112e23          	sw	ra,28(sp)
     314:	00812c23          	sw	s0,24(sp)
     318:	02010413          	addi	s0,sp,32
     31c:	33c000ef          	jal	ra,658 <uart_poll>
     320:	00050793          	mv	a5,a0
     324:	fef407a3          	sb	a5,-17(s0)
     328:	fef44783          	lbu	a5,-17(s0)
     32c:	0207f793          	andi	a5,a5,32
     330:	fef407a3          	sb	a5,-17(s0)
     334:	fef44783          	lbu	a5,-17(s0)
     338:	00078663          	beqz	a5,344 <tx_fifo_empty+0x38>
     33c:	00100793          	li	a5,1
     340:	0080006f          	j	348 <tx_fifo_empty+0x3c>
     344:	00000793          	li	a5,0
     348:	00078513          	mv	a0,a5
     34c:	01c12083          	lw	ra,28(sp)
     350:	01812403          	lw	s0,24(sp)
     354:	02010113          	addi	sp,sp,32
     358:	00008067          	ret

0000035c <main>:
     35c:	fb010113          	addi	sp,sp,-80
     360:	04112623          	sw	ra,76(sp)
     364:	04812423          	sw	s0,72(sp)
     368:	04912223          	sw	s1,68(sp)
     36c:	05212023          	sw	s2,64(sp)
     370:	03312e23          	sw	s3,60(sp)
     374:	03412c23          	sw	s4,56(sp)
     378:	03512a23          	sw	s5,52(sp)
     37c:	03612823          	sw	s6,48(sp)
     380:	03712623          	sw	s7,44(sp)
     384:	03812423          	sw	s8,40(sp)
     388:	03912223          	sw	s9,36(sp)
     38c:	05010413          	addi	s0,sp,80
     390:	17c000ef          	jal	ra,50c <uart_init>
     394:	00010793          	mv	a5,sp
     398:	00078493          	mv	s1,a5
     39c:	2f4000ef          	jal	ra,690 <uart_read_blocking>
     3a0:	00050793          	mv	a5,a0
     3a4:	fcf403a3          	sb	a5,-57(s0)
     3a8:	fc744783          	lbu	a5,-57(s0)
     3ac:	00078513          	mv	a0,a5
     3b0:	491000ef          	jal	ra,1040 <set_CRAS>
     3b4:	fc744783          	lbu	a5,-57(s0)
     3b8:	00078513          	mv	a0,a5
     3bc:	3b5000ef          	jal	ra,f70 <print>
     3c0:	eb1ff0ef          	jal	ra,270 <recv_int>
     3c4:	fca42023          	sw	a0,-64(s0)
     3c8:	fc042783          	lw	a5,-64(s0)
     3cc:	fff78713          	addi	a4,a5,-1
     3d0:	fae42e23          	sw	a4,-68(s0)
     3d4:	00078713          	mv	a4,a5
     3d8:	00070b13          	mv	s6,a4
     3dc:	00000b93          	li	s7,0
     3e0:	01bb5713          	srli	a4,s6,0x1b
     3e4:	005b9993          	slli	s3,s7,0x5
     3e8:	013769b3          	or	s3,a4,s3
     3ec:	005b1913          	slli	s2,s6,0x5
     3f0:	00078713          	mv	a4,a5
     3f4:	00070c13          	mv	s8,a4
     3f8:	00000c93          	li	s9,0
     3fc:	01bc5713          	srli	a4,s8,0x1b
     400:	005c9a93          	slli	s5,s9,0x5
     404:	01576ab3          	or	s5,a4,s5
     408:	005c1a13          	slli	s4,s8,0x5
     40c:	00279793          	slli	a5,a5,0x2
     410:	00378793          	addi	a5,a5,3
     414:	00f78793          	addi	a5,a5,15
     418:	0047d793          	srli	a5,a5,0x4
     41c:	00479793          	slli	a5,a5,0x4
     420:	40f10133          	sub	sp,sp,a5
     424:	00010793          	mv	a5,sp
     428:	00378793          	addi	a5,a5,3
     42c:	0027d793          	srli	a5,a5,0x2
     430:	00279793          	slli	a5,a5,0x2
     434:	faf42c23          	sw	a5,-72(s0)
     438:	fc042423          	sw	zero,-56(s0)
     43c:	02c0006f          	j	468 <main+0x10c>
     440:	e31ff0ef          	jal	ra,270 <recv_int>
     444:	00050693          	mv	a3,a0
     448:	fb842703          	lw	a4,-72(s0)
     44c:	fc842783          	lw	a5,-56(s0)
     450:	00279793          	slli	a5,a5,0x2
     454:	00f707b3          	add	a5,a4,a5
     458:	00d7a023          	sw	a3,0(a5)
     45c:	fc842783          	lw	a5,-56(s0)
     460:	00178793          	addi	a5,a5,1
     464:	fcf42423          	sw	a5,-56(s0)
     468:	fc842703          	lw	a4,-56(s0)
     46c:	fc042783          	lw	a5,-64(s0)
     470:	fcf748e3          	blt	a4,a5,440 <main+0xe4>
     474:	335000ef          	jal	ra,fa8 <zero_counter>
     478:	fb842703          	lw	a4,-72(s0)
     47c:	fc042783          	lw	a5,-64(s0)
     480:	fff78793          	addi	a5,a5,-1
     484:	00078613          	mv	a2,a5
     488:	00000593          	li	a1,0
     48c:	00070513          	mv	a0,a4
     490:	cddff0ef          	jal	ra,16c <quicksort>
     494:	37d000ef          	jal	ra,1010 <read_counter>
     498:	faa42a23          	sw	a0,-76(s0)
     49c:	fc042623          	sw	zero,-52(s0)
     4a0:	0400006f          	j	4e0 <main+0x184>
     4a4:	00000013          	nop
     4a8:	e65ff0ef          	jal	ra,30c <tx_fifo_empty>
     4ac:	00050793          	mv	a5,a0
     4b0:	fe078ce3          	beqz	a5,4a8 <main+0x14c>
     4b4:	fb842703          	lw	a4,-72(s0)
     4b8:	fcc42783          	lw	a5,-52(s0)
     4bc:	00279793          	slli	a5,a5,0x2
     4c0:	00f707b3          	add	a5,a4,a5
     4c4:	0007a783          	lw	a5,0(a5)
     4c8:	00078513          	mv	a0,a5
     4cc:	d21ff0ef          	jal	ra,1ec <send_int>
     4d0:	1c0000ef          	jal	ra,690 <uart_read_blocking>
     4d4:	fcc42783          	lw	a5,-52(s0)
     4d8:	00178793          	addi	a5,a5,1
     4dc:	fcf42623          	sw	a5,-52(s0)
     4e0:	fcc42703          	lw	a4,-52(s0)
     4e4:	fc042783          	lw	a5,-64(s0)
     4e8:	faf74ee3          	blt	a4,a5,4a4 <main+0x148>
     4ec:	fb442783          	lw	a5,-76(s0)
     4f0:	00078513          	mv	a0,a5
     4f4:	cf9ff0ef          	jal	ra,1ec <send_int>
     4f8:	fb442783          	lw	a5,-76(s0)
     4fc:	00078513          	mv	a0,a5
     500:	271000ef          	jal	ra,f70 <print>
     504:	00048113          	mv	sp,s1
     508:	e8dff06f          	j	394 <main+0x38>

0000050c <uart_init>:
     50c:	fe010113          	addi	sp,sp,-32
     510:	00812e23          	sw	s0,28(sp)
     514:	02010413          	addi	s0,sp,32
     518:	aaaaa7b7          	lui	a5,0xaaaaa
     51c:	40078793          	addi	a5,a5,1024 # aaaaa400 <_sp0+0xaaaa8300>
     520:	fef42623          	sw	a5,-20(s0)
     524:	fec42783          	lw	a5,-20(s0)
     528:	00378793          	addi	a5,a5,3
     52c:	f8300713          	li	a4,-125
     530:	00e78023          	sb	a4,0(a5)
     534:	03600793          	li	a5,54
     538:	fef405a3          	sb	a5,-21(s0)
     53c:	fec42783          	lw	a5,-20(s0)
     540:	feb44703          	lbu	a4,-21(s0)
     544:	00e78023          	sb	a4,0(a5)
     548:	fec42783          	lw	a5,-20(s0)
     54c:	00178793          	addi	a5,a5,1
     550:	00078023          	sb	zero,0(a5)
     554:	fec42783          	lw	a5,-20(s0)
     558:	00378793          	addi	a5,a5,3
     55c:	00300713          	li	a4,3
     560:	00e78023          	sb	a4,0(a5)
     564:	fec42783          	lw	a5,-20(s0)
     568:	00278793          	addi	a5,a5,2
     56c:	00100713          	li	a4,1
     570:	00e78023          	sb	a4,0(a5)
     574:	fec42783          	lw	a5,-20(s0)
     578:	00178793          	addi	a5,a5,1
     57c:	00100713          	li	a4,1
     580:	00e78023          	sb	a4,0(a5)
     584:	00100793          	li	a5,1
     588:	00078513          	mv	a0,a5
     58c:	01c12403          	lw	s0,28(sp)
     590:	02010113          	addi	sp,sp,32
     594:	00008067          	ret

00000598 <uart_put>:
     598:	fd010113          	addi	sp,sp,-48
     59c:	02812623          	sw	s0,44(sp)
     5a0:	03010413          	addi	s0,sp,48
     5a4:	00050793          	mv	a5,a0
     5a8:	fcf40fa3          	sb	a5,-33(s0)
     5ac:	aaaaa7b7          	lui	a5,0xaaaaa
     5b0:	40078793          	addi	a5,a5,1024 # aaaaa400 <_sp0+0xaaaa8300>
     5b4:	fef42623          	sw	a5,-20(s0)
     5b8:	fec42783          	lw	a5,-20(s0)
     5bc:	fdf44703          	lbu	a4,-33(s0)
     5c0:	00e78023          	sb	a4,0(a5)
     5c4:	00000013          	nop
     5c8:	02c12403          	lw	s0,44(sp)
     5cc:	03010113          	addi	sp,sp,48
     5d0:	00008067          	ret

000005d4 <uart_put_blocking>:
     5d4:	fd010113          	addi	sp,sp,-48
     5d8:	02112623          	sw	ra,44(sp)
     5dc:	02812423          	sw	s0,40(sp)
     5e0:	03010413          	addi	s0,sp,48
     5e4:	00050793          	mv	a5,a0
     5e8:	fcf40fa3          	sb	a5,-33(s0)
     5ec:	06c000ef          	jal	ra,658 <uart_poll>
     5f0:	00050793          	mv	a5,a0
     5f4:	0607f793          	andi	a5,a5,96
     5f8:	fef407a3          	sb	a5,-17(s0)
     5fc:	fef44783          	lbu	a5,-17(s0)
     600:	fe0786e3          	beqz	a5,5ec <uart_put_blocking+0x18>
     604:	fdf44783          	lbu	a5,-33(s0)
     608:	00078513          	mv	a0,a5
     60c:	f8dff0ef          	jal	ra,598 <uart_put>
     610:	00000013          	nop
     614:	02c12083          	lw	ra,44(sp)
     618:	02812403          	lw	s0,40(sp)
     61c:	03010113          	addi	sp,sp,48
     620:	00008067          	ret

00000624 <uart_get>:
     624:	fe010113          	addi	sp,sp,-32
     628:	00812e23          	sw	s0,28(sp)
     62c:	02010413          	addi	s0,sp,32
     630:	aaaaa7b7          	lui	a5,0xaaaaa
     634:	40078793          	addi	a5,a5,1024 # aaaaa400 <_sp0+0xaaaa8300>
     638:	fef42623          	sw	a5,-20(s0)
     63c:	fec42783          	lw	a5,-20(s0)
     640:	0007c783          	lbu	a5,0(a5)
     644:	0ff7f793          	andi	a5,a5,255
     648:	00078513          	mv	a0,a5
     64c:	01c12403          	lw	s0,28(sp)
     650:	02010113          	addi	sp,sp,32
     654:	00008067          	ret

00000658 <uart_poll>:
     658:	fe010113          	addi	sp,sp,-32
     65c:	00812e23          	sw	s0,28(sp)
     660:	02010413          	addi	s0,sp,32
     664:	aaaaa7b7          	lui	a5,0xaaaaa
     668:	40078793          	addi	a5,a5,1024 # aaaaa400 <_sp0+0xaaaa8300>
     66c:	fef42623          	sw	a5,-20(s0)
     670:	fec42783          	lw	a5,-20(s0)
     674:	00578793          	addi	a5,a5,5
     678:	0007c783          	lbu	a5,0(a5)
     67c:	0ff7f793          	andi	a5,a5,255
     680:	00078513          	mv	a0,a5
     684:	01c12403          	lw	s0,28(sp)
     688:	02010113          	addi	sp,sp,32
     68c:	00008067          	ret

00000690 <uart_read_blocking>:
     690:	fe010113          	addi	sp,sp,-32
     694:	00112e23          	sw	ra,28(sp)
     698:	00812c23          	sw	s0,24(sp)
     69c:	02010413          	addi	s0,sp,32
     6a0:	fb9ff0ef          	jal	ra,658 <uart_poll>
     6a4:	00050793          	mv	a5,a0
     6a8:	0017f793          	andi	a5,a5,1
     6ac:	fef407a3          	sb	a5,-17(s0)
     6b0:	fef44783          	lbu	a5,-17(s0)
     6b4:	fe0786e3          	beqz	a5,6a0 <uart_read_blocking+0x10>
     6b8:	f6dff0ef          	jal	ra,624 <uart_get>
     6bc:	00050793          	mv	a5,a0
     6c0:	00078513          	mv	a0,a5
     6c4:	01c12083          	lw	ra,28(sp)
     6c8:	01812403          	lw	s0,24(sp)
     6cc:	02010113          	addi	sp,sp,32
     6d0:	00008067          	ret

000006d4 <uart_print>:
     6d4:	fd010113          	addi	sp,sp,-48
     6d8:	02112623          	sw	ra,44(sp)
     6dc:	02812423          	sw	s0,40(sp)
     6e0:	03010413          	addi	s0,sp,48
     6e4:	fca42e23          	sw	a0,-36(s0)
     6e8:	fdc42783          	lw	a5,-36(s0)
     6ec:	fef42423          	sw	a5,-24(s0)
     6f0:	fe042623          	sw	zero,-20(s0)
     6f4:	04c0006f          	j	740 <uart_print+0x6c>
     6f8:	fec42783          	lw	a5,-20(s0)
     6fc:	02079063          	bnez	a5,71c <uart_print+0x48>
     700:	fec42783          	lw	a5,-20(s0)
     704:	fe842703          	lw	a4,-24(s0)
     708:	00f707b3          	add	a5,a4,a5
     70c:	0007c783          	lbu	a5,0(a5)
     710:	00078513          	mv	a0,a5
     714:	ec1ff0ef          	jal	ra,5d4 <uart_put_blocking>
     718:	01c0006f          	j	734 <uart_print+0x60>
     71c:	fec42783          	lw	a5,-20(s0)
     720:	fe842703          	lw	a4,-24(s0)
     724:	00f707b3          	add	a5,a4,a5
     728:	0007c783          	lbu	a5,0(a5)
     72c:	00078513          	mv	a0,a5
     730:	e69ff0ef          	jal	ra,598 <uart_put>
     734:	fec42783          	lw	a5,-20(s0)
     738:	00178793          	addi	a5,a5,1
     73c:	fef42623          	sw	a5,-20(s0)
     740:	fec42783          	lw	a5,-20(s0)
     744:	fe842703          	lw	a4,-24(s0)
     748:	00f707b3          	add	a5,a4,a5
     74c:	0007c783          	lbu	a5,0(a5)
     750:	fa0794e3          	bnez	a5,6f8 <uart_print+0x24>
     754:	00000013          	nop
     758:	02c12083          	lw	ra,44(sp)
     75c:	02812403          	lw	s0,40(sp)
     760:	03010113          	addi	sp,sp,48
     764:	00008067          	ret

00000768 <readline>:
     768:	fd010113          	addi	sp,sp,-48
     76c:	02112623          	sw	ra,44(sp)
     770:	02812423          	sw	s0,40(sp)
     774:	03010413          	addi	s0,sp,48
     778:	fca42e23          	sw	a0,-36(s0)
     77c:	fcb42c23          	sw	a1,-40(s0)
     780:	fe042623          	sw	zero,-20(s0)
     784:	0900006f          	j	814 <readline+0xac>
     788:	f09ff0ef          	jal	ra,690 <uart_read_blocking>
     78c:	00050793          	mv	a5,a0
     790:	fef403a3          	sb	a5,-25(s0)
     794:	fe744703          	lbu	a4,-25(s0)
     798:	00d00793          	li	a5,13
     79c:	04f71663          	bne	a4,a5,7e8 <readline+0x80>
     7a0:	fec42783          	lw	a5,-20(s0)
     7a4:	fef42423          	sw	a5,-24(s0)
     7a8:	0200006f          	j	7c8 <readline+0x60>
     7ac:	fe842783          	lw	a5,-24(s0)
     7b0:	fdc42703          	lw	a4,-36(s0)
     7b4:	00f707b3          	add	a5,a4,a5
     7b8:	00078023          	sb	zero,0(a5)
     7bc:	fe842783          	lw	a5,-24(s0)
     7c0:	00178793          	addi	a5,a5,1
     7c4:	fef42423          	sw	a5,-24(s0)
     7c8:	fe842703          	lw	a4,-24(s0)
     7cc:	fd842783          	lw	a5,-40(s0)
     7d0:	fcf74ee3          	blt	a4,a5,7ac <readline+0x44>
     7d4:	00d00513          	li	a0,13
     7d8:	dc1ff0ef          	jal	ra,598 <uart_put>
     7dc:	00a00513          	li	a0,10
     7e0:	db9ff0ef          	jal	ra,598 <uart_put>
     7e4:	03c0006f          	j	820 <readline+0xb8>
     7e8:	fe744783          	lbu	a5,-25(s0)
     7ec:	00078513          	mv	a0,a5
     7f0:	da9ff0ef          	jal	ra,598 <uart_put>
     7f4:	fec42783          	lw	a5,-20(s0)
     7f8:	fdc42703          	lw	a4,-36(s0)
     7fc:	00f707b3          	add	a5,a4,a5
     800:	fe744703          	lbu	a4,-25(s0)
     804:	00e78023          	sb	a4,0(a5)
     808:	fec42783          	lw	a5,-20(s0)
     80c:	00178793          	addi	a5,a5,1
     810:	fef42623          	sw	a5,-20(s0)
     814:	fec42703          	lw	a4,-20(s0)
     818:	fd842783          	lw	a5,-40(s0)
     81c:	f6f746e3          	blt	a4,a5,788 <readline+0x20>
     820:	02c12083          	lw	ra,44(sp)
     824:	02812403          	lw	s0,40(sp)
     828:	03010113          	addi	sp,sp,48
     82c:	00008067          	ret

00000830 <strlen>:
     830:	fd010113          	addi	sp,sp,-48
     834:	02812623          	sw	s0,44(sp)
     838:	03010413          	addi	s0,sp,48
     83c:	fca42e23          	sw	a0,-36(s0)
     840:	fdc42783          	lw	a5,-36(s0)
     844:	fef42423          	sw	a5,-24(s0)
     848:	fe042623          	sw	zero,-20(s0)
     84c:	0100006f          	j	85c <strlen+0x2c>
     850:	fec42783          	lw	a5,-20(s0)
     854:	00178793          	addi	a5,a5,1
     858:	fef42623          	sw	a5,-20(s0)
     85c:	fec42783          	lw	a5,-20(s0)
     860:	fe842703          	lw	a4,-24(s0)
     864:	00f707b3          	add	a5,a4,a5
     868:	0007c783          	lbu	a5,0(a5)
     86c:	fe0792e3          	bnez	a5,850 <strlen+0x20>
     870:	fec42783          	lw	a5,-20(s0)
     874:	00078513          	mv	a0,a5
     878:	02c12403          	lw	s0,44(sp)
     87c:	03010113          	addi	sp,sp,48
     880:	00008067          	ret

00000884 <atoi>:
     884:	fc010113          	addi	sp,sp,-64
     888:	02112e23          	sw	ra,60(sp)
     88c:	02812c23          	sw	s0,56(sp)
     890:	04010413          	addi	s0,sp,64
     894:	fca42623          	sw	a0,-52(s0)
     898:	fcc42503          	lw	a0,-52(s0)
     89c:	f95ff0ef          	jal	ra,830 <strlen>
     8a0:	fea42223          	sw	a0,-28(s0)
     8a4:	fe042423          	sw	zero,-24(s0)
     8a8:	00100793          	li	a5,1
     8ac:	fef42023          	sw	a5,-32(s0)
     8b0:	0840006f          	j	934 <atoi+0xb0>
     8b4:	fec42783          	lw	a5,-20(s0)
     8b8:	fcc42703          	lw	a4,-52(s0)
     8bc:	00f707b3          	add	a5,a4,a5
     8c0:	0007c783          	lbu	a5,0(a5)
     8c4:	fd078793          	addi	a5,a5,-48
     8c8:	fcf42e23          	sw	a5,-36(s0)
     8cc:	fdc42703          	lw	a4,-36(s0)
     8d0:	ffd00793          	li	a5,-3
     8d4:	00f71863          	bne	a4,a5,8e4 <atoi+0x60>
     8d8:	fe842783          	lw	a5,-24(s0)
     8dc:	40f007b3          	neg	a5,a5
     8e0:	0600006f          	j	940 <atoi+0xbc>
     8e4:	fdc42783          	lw	a5,-36(s0)
     8e8:	0207cc63          	bltz	a5,920 <atoi+0x9c>
     8ec:	fdc42703          	lw	a4,-36(s0)
     8f0:	00900793          	li	a5,9
     8f4:	02e7c663          	blt	a5,a4,920 <atoi+0x9c>
     8f8:	fdc42783          	lw	a5,-36(s0)
     8fc:	fe042703          	lw	a4,-32(s0)
     900:	00070593          	mv	a1,a4
     904:	00078513          	mv	a0,a5
     908:	1e0000ef          	jal	ra,ae8 <multiply>
     90c:	00050713          	mv	a4,a0
     910:	fe842783          	lw	a5,-24(s0)
     914:	00e787b3          	add	a5,a5,a4
     918:	fef42423          	sw	a5,-24(s0)
     91c:	00c0006f          	j	928 <atoi+0xa4>
     920:	fff00793          	li	a5,-1
     924:	01c0006f          	j	940 <atoi+0xbc>
     928:	fec42783          	lw	a5,-20(s0)
     92c:	fff78793          	addi	a5,a5,-1
     930:	fef42623          	sw	a5,-20(s0)
     934:	fec42783          	lw	a5,-20(s0)
     938:	f607dee3          	bgez	a5,8b4 <atoi+0x30>
     93c:	fe842783          	lw	a5,-24(s0)
     940:	00078513          	mv	a0,a5
     944:	03c12083          	lw	ra,60(sp)
     948:	03812403          	lw	s0,56(sp)
     94c:	04010113          	addi	sp,sp,64
     950:	00008067          	ret

00000954 <itoa>:
     954:	fd010113          	addi	sp,sp,-48
     958:	02112623          	sw	ra,44(sp)
     95c:	02812423          	sw	s0,40(sp)
     960:	03010413          	addi	s0,sp,48
     964:	fca42e23          	sw	a0,-36(s0)
     968:	fcb42c23          	sw	a1,-40(s0)
     96c:	fe042223          	sw	zero,-28(s0)
     970:	fdc42783          	lw	a5,-36(s0)
     974:	0207d863          	bgez	a5,9a4 <itoa+0x50>
     978:	fe442783          	lw	a5,-28(s0)
     97c:	fd842703          	lw	a4,-40(s0)
     980:	00f707b3          	add	a5,a4,a5
     984:	02d00713          	li	a4,45
     988:	00e78023          	sb	a4,0(a5)
     98c:	fdc42783          	lw	a5,-36(s0)
     990:	40f007b3          	neg	a5,a5
     994:	fcf42e23          	sw	a5,-36(s0)
     998:	fe442783          	lw	a5,-28(s0)
     99c:	00178793          	addi	a5,a5,1
     9a0:	fef42223          	sw	a5,-28(s0)
     9a4:	fdc42703          	lw	a4,-36(s0)
     9a8:	00900793          	li	a5,9
     9ac:	02e7c463          	blt	a5,a4,9d4 <itoa+0x80>
     9b0:	fdc42783          	lw	a5,-36(s0)
     9b4:	0ff7f713          	andi	a4,a5,255
     9b8:	fe442783          	lw	a5,-28(s0)
     9bc:	fd842683          	lw	a3,-40(s0)
     9c0:	00f687b3          	add	a5,a3,a5
     9c4:	03070713          	addi	a4,a4,48
     9c8:	0ff77713          	andi	a4,a4,255
     9cc:	00e78023          	sb	a4,0(a5)
     9d0:	0d40006f          	j	aa4 <itoa+0x150>
     9d4:	00100793          	li	a5,1
     9d8:	fef42623          	sw	a5,-20(s0)
     9dc:	0180006f          	j	9f4 <itoa+0xa0>
     9e0:	fec42783          	lw	a5,-20(s0)
     9e4:	00a00593          	li	a1,10
     9e8:	00078513          	mv	a0,a5
     9ec:	0fc000ef          	jal	ra,ae8 <multiply>
     9f0:	fea42623          	sw	a0,-20(s0)
     9f4:	fec42583          	lw	a1,-20(s0)
     9f8:	fdc42503          	lw	a0,-36(s0)
     9fc:	158000ef          	jal	ra,b54 <divide>
     a00:	00050793          	mv	a5,a0
     a04:	fcf04ee3          	bgtz	a5,9e0 <itoa+0x8c>
     a08:	00a00593          	li	a1,10
     a0c:	fec42503          	lw	a0,-20(s0)
     a10:	144000ef          	jal	ra,b54 <divide>
     a14:	fea42423          	sw	a0,-24(s0)
     a18:	fec42583          	lw	a1,-20(s0)
     a1c:	fdc42503          	lw	a0,-36(s0)
     a20:	268000ef          	jal	ra,c88 <modulo>
     a24:	00050793          	mv	a5,a0
     a28:	fe842583          	lw	a1,-24(s0)
     a2c:	00078513          	mv	a0,a5
     a30:	124000ef          	jal	ra,b54 <divide>
     a34:	fea42023          	sw	a0,-32(s0)
     a38:	fe042783          	lw	a5,-32(s0)
     a3c:	0ff7f713          	andi	a4,a5,255
     a40:	fe442783          	lw	a5,-28(s0)
     a44:	fd842683          	lw	a3,-40(s0)
     a48:	00f687b3          	add	a5,a3,a5
     a4c:	03070713          	addi	a4,a4,48
     a50:	0ff77713          	andi	a4,a4,255
     a54:	00e78023          	sb	a4,0(a5)
     a58:	fe442783          	lw	a5,-28(s0)
     a5c:	00178793          	addi	a5,a5,1
     a60:	fef42223          	sw	a5,-28(s0)
     a64:	fe842703          	lw	a4,-24(s0)
     a68:	00100793          	li	a5,1
     a6c:	02f70a63          	beq	a4,a5,aa0 <itoa+0x14c>
     a70:	fe442703          	lw	a4,-28(s0)
     a74:	00c00793          	li	a5,12
     a78:	02f70463          	beq	a4,a5,aa0 <itoa+0x14c>
     a7c:	00a00593          	li	a1,10
     a80:	fe842503          	lw	a0,-24(s0)
     a84:	0d0000ef          	jal	ra,b54 <divide>
     a88:	fea42423          	sw	a0,-24(s0)
     a8c:	00a00593          	li	a1,10
     a90:	fec42503          	lw	a0,-20(s0)
     a94:	0c0000ef          	jal	ra,b54 <divide>
     a98:	fea42623          	sw	a0,-20(s0)
     a9c:	f7dff06f          	j	a18 <itoa+0xc4>
     aa0:	00000013          	nop
     aa4:	02c12083          	lw	ra,44(sp)
     aa8:	02812403          	lw	s0,40(sp)
     aac:	03010113          	addi	sp,sp,48
     ab0:	00008067          	ret

00000ab4 <abs>:
     ab4:	fe010113          	addi	sp,sp,-32
     ab8:	00812e23          	sw	s0,28(sp)
     abc:	02010413          	addi	s0,sp,32
     ac0:	fea42623          	sw	a0,-20(s0)
     ac4:	fec42783          	lw	a5,-20(s0)
     ac8:	41f7d713          	srai	a4,a5,0x1f
     acc:	fec42783          	lw	a5,-20(s0)
     ad0:	00f747b3          	xor	a5,a4,a5
     ad4:	40e787b3          	sub	a5,a5,a4
     ad8:	00078513          	mv	a0,a5
     adc:	01c12403          	lw	s0,28(sp)
     ae0:	02010113          	addi	sp,sp,32
     ae4:	00008067          	ret

00000ae8 <multiply>:
     ae8:	fd010113          	addi	sp,sp,-48
     aec:	02812623          	sw	s0,44(sp)
     af0:	03010413          	addi	s0,sp,48
     af4:	fca42e23          	sw	a0,-36(s0)
     af8:	fcb42c23          	sw	a1,-40(s0)
     afc:	fe042623          	sw	zero,-20(s0)
     b00:	0380006f          	j	b38 <multiply+0x50>
     b04:	fdc42783          	lw	a5,-36(s0)
     b08:	0017f793          	andi	a5,a5,1
     b0c:	00078a63          	beqz	a5,b20 <multiply+0x38>
     b10:	fec42703          	lw	a4,-20(s0)
     b14:	fd842783          	lw	a5,-40(s0)
     b18:	00f707b3          	add	a5,a4,a5
     b1c:	fef42623          	sw	a5,-20(s0)
     b20:	fdc42783          	lw	a5,-36(s0)
     b24:	0017d793          	srli	a5,a5,0x1
     b28:	fcf42e23          	sw	a5,-36(s0)
     b2c:	fd842783          	lw	a5,-40(s0)
     b30:	00179793          	slli	a5,a5,0x1
     b34:	fcf42c23          	sw	a5,-40(s0)
     b38:	fdc42783          	lw	a5,-36(s0)
     b3c:	fc0794e3          	bnez	a5,b04 <multiply+0x1c>
     b40:	fec42783          	lw	a5,-20(s0)
     b44:	00078513          	mv	a0,a5
     b48:	02c12403          	lw	s0,44(sp)
     b4c:	03010113          	addi	sp,sp,48
     b50:	00008067          	ret

00000b54 <divide>:
     b54:	fd010113          	addi	sp,sp,-48
     b58:	02112623          	sw	ra,44(sp)
     b5c:	02812423          	sw	s0,40(sp)
     b60:	03010413          	addi	s0,sp,48
     b64:	fca42e23          	sw	a0,-36(s0)
     b68:	fcb42c23          	sw	a1,-40(s0)
     b6c:	fd842783          	lw	a5,-40(s0)
     b70:	00079663          	bnez	a5,b7c <divide+0x28>
     b74:	00000793          	li	a5,0
     b78:	0fc0006f          	j	c74 <divide+0x120>
     b7c:	00100793          	li	a5,1
     b80:	fef42623          	sw	a5,-20(s0)
     b84:	fdc42783          	lw	a5,-36(s0)
     b88:	fd842703          	lw	a4,-40(s0)
     b8c:	00070593          	mv	a1,a4
     b90:	00078513          	mv	a0,a5
     b94:	f55ff0ef          	jal	ra,ae8 <multiply>
     b98:	00050793          	mv	a5,a0
     b9c:	0007d663          	bgez	a5,ba8 <divide+0x54>
     ba0:	fff00793          	li	a5,-1
     ba4:	fef42623          	sw	a5,-20(s0)
     ba8:	fdc42783          	lw	a5,-36(s0)
     bac:	41f7d793          	srai	a5,a5,0x1f
     bb0:	fdc42703          	lw	a4,-36(s0)
     bb4:	00f74733          	xor	a4,a4,a5
     bb8:	40f707b3          	sub	a5,a4,a5
     bbc:	fcf42e23          	sw	a5,-36(s0)
     bc0:	fd842783          	lw	a5,-40(s0)
     bc4:	41f7d793          	srai	a5,a5,0x1f
     bc8:	fd842703          	lw	a4,-40(s0)
     bcc:	00f74733          	xor	a4,a4,a5
     bd0:	40f707b3          	sub	a5,a4,a5
     bd4:	fcf42c23          	sw	a5,-40(s0)
     bd8:	00100793          	li	a5,1
     bdc:	fef42423          	sw	a5,-24(s0)
     be0:	fe042223          	sw	zero,-28(s0)
     be4:	01c0006f          	j	c00 <divide+0xac>
     be8:	fd842783          	lw	a5,-40(s0)
     bec:	00179793          	slli	a5,a5,0x1
     bf0:	fcf42c23          	sw	a5,-40(s0)
     bf4:	fe842783          	lw	a5,-24(s0)
     bf8:	00179793          	slli	a5,a5,0x1
     bfc:	fef42423          	sw	a5,-24(s0)
     c00:	fd842703          	lw	a4,-40(s0)
     c04:	fdc42783          	lw	a5,-36(s0)
     c08:	fee7d0e3          	ble	a4,a5,be8 <divide+0x94>
     c0c:	0480006f          	j	c54 <divide+0x100>
     c10:	fd842783          	lw	a5,-40(s0)
     c14:	4017d793          	srai	a5,a5,0x1
     c18:	fcf42c23          	sw	a5,-40(s0)
     c1c:	fe842783          	lw	a5,-24(s0)
     c20:	0017d793          	srli	a5,a5,0x1
     c24:	fef42423          	sw	a5,-24(s0)
     c28:	fdc42703          	lw	a4,-36(s0)
     c2c:	fd842783          	lw	a5,-40(s0)
     c30:	02f74263          	blt	a4,a5,c54 <divide+0x100>
     c34:	fdc42703          	lw	a4,-36(s0)
     c38:	fd842783          	lw	a5,-40(s0)
     c3c:	40f707b3          	sub	a5,a4,a5
     c40:	fcf42e23          	sw	a5,-36(s0)
     c44:	fe442703          	lw	a4,-28(s0)
     c48:	fe842783          	lw	a5,-24(s0)
     c4c:	00f767b3          	or	a5,a4,a5
     c50:	fef42223          	sw	a5,-28(s0)
     c54:	fe842703          	lw	a4,-24(s0)
     c58:	00100793          	li	a5,1
     c5c:	fae7eae3          	bltu	a5,a4,c10 <divide+0xbc>
     c60:	fec42783          	lw	a5,-20(s0)
     c64:	fe442583          	lw	a1,-28(s0)
     c68:	00078513          	mv	a0,a5
     c6c:	e7dff0ef          	jal	ra,ae8 <multiply>
     c70:	00050793          	mv	a5,a0
     c74:	00078513          	mv	a0,a5
     c78:	02c12083          	lw	ra,44(sp)
     c7c:	02812403          	lw	s0,40(sp)
     c80:	03010113          	addi	sp,sp,48
     c84:	00008067          	ret

00000c88 <modulo>:
     c88:	fd010113          	addi	sp,sp,-48
     c8c:	02112623          	sw	ra,44(sp)
     c90:	02812423          	sw	s0,40(sp)
     c94:	03010413          	addi	s0,sp,48
     c98:	fca42e23          	sw	a0,-36(s0)
     c9c:	fcb42c23          	sw	a1,-40(s0)
     ca0:	fd842783          	lw	a5,-40(s0)
     ca4:	00079663          	bnez	a5,cb0 <modulo+0x28>
     ca8:	00000793          	li	a5,0
     cac:	0d80006f          	j	d84 <modulo+0xfc>
     cb0:	00100793          	li	a5,1
     cb4:	fef42623          	sw	a5,-20(s0)
     cb8:	fdc42783          	lw	a5,-36(s0)
     cbc:	0007d663          	bgez	a5,cc8 <modulo+0x40>
     cc0:	fff00793          	li	a5,-1
     cc4:	fef42623          	sw	a5,-20(s0)
     cc8:	fdc42783          	lw	a5,-36(s0)
     ccc:	41f7d793          	srai	a5,a5,0x1f
     cd0:	fdc42703          	lw	a4,-36(s0)
     cd4:	00f74733          	xor	a4,a4,a5
     cd8:	40f707b3          	sub	a5,a4,a5
     cdc:	fcf42e23          	sw	a5,-36(s0)
     ce0:	fd842783          	lw	a5,-40(s0)
     ce4:	41f7d793          	srai	a5,a5,0x1f
     ce8:	fd842703          	lw	a4,-40(s0)
     cec:	00f74733          	xor	a4,a4,a5
     cf0:	40f707b3          	sub	a5,a4,a5
     cf4:	fcf42c23          	sw	a5,-40(s0)
     cf8:	00100793          	li	a5,1
     cfc:	fef42423          	sw	a5,-24(s0)
     d00:	01c0006f          	j	d1c <modulo+0x94>
     d04:	fd842783          	lw	a5,-40(s0)
     d08:	00179793          	slli	a5,a5,0x1
     d0c:	fcf42c23          	sw	a5,-40(s0)
     d10:	fe842783          	lw	a5,-24(s0)
     d14:	00179793          	slli	a5,a5,0x1
     d18:	fef42423          	sw	a5,-24(s0)
     d1c:	fd842703          	lw	a4,-40(s0)
     d20:	fdc42783          	lw	a5,-36(s0)
     d24:	fee7d0e3          	ble	a4,a5,d04 <modulo+0x7c>
     d28:	0380006f          	j	d60 <modulo+0xd8>
     d2c:	fd842783          	lw	a5,-40(s0)
     d30:	4017d793          	srai	a5,a5,0x1
     d34:	fcf42c23          	sw	a5,-40(s0)
     d38:	fe842783          	lw	a5,-24(s0)
     d3c:	0017d793          	srli	a5,a5,0x1
     d40:	fef42423          	sw	a5,-24(s0)
     d44:	fdc42703          	lw	a4,-36(s0)
     d48:	fd842783          	lw	a5,-40(s0)
     d4c:	00f74a63          	blt	a4,a5,d60 <modulo+0xd8>
     d50:	fdc42703          	lw	a4,-36(s0)
     d54:	fd842783          	lw	a5,-40(s0)
     d58:	40f707b3          	sub	a5,a4,a5
     d5c:	fcf42e23          	sw	a5,-36(s0)
     d60:	fe842703          	lw	a4,-24(s0)
     d64:	00100793          	li	a5,1
     d68:	fce7e2e3          	bltu	a5,a4,d2c <modulo+0xa4>
     d6c:	fec42783          	lw	a5,-20(s0)
     d70:	fdc42703          	lw	a4,-36(s0)
     d74:	00070593          	mv	a1,a4
     d78:	00078513          	mv	a0,a5
     d7c:	d6dff0ef          	jal	ra,ae8 <multiply>
     d80:	00050793          	mv	a5,a0
     d84:	00078513          	mv	a0,a5
     d88:	02c12083          	lw	ra,44(sp)
     d8c:	02812403          	lw	s0,40(sp)
     d90:	03010113          	addi	sp,sp,48
     d94:	00008067          	ret

00000d98 <count_digits>:
     d98:	fd010113          	addi	sp,sp,-48
     d9c:	02112623          	sw	ra,44(sp)
     da0:	02812423          	sw	s0,40(sp)
     da4:	03010413          	addi	s0,sp,48
     da8:	fca42e23          	sw	a0,-36(s0)
     dac:	fe042623          	sw	zero,-20(s0)
     db0:	0200006f          	j	dd0 <count_digits+0x38>
     db4:	00a00593          	li	a1,10
     db8:	fdc42503          	lw	a0,-36(s0)
     dbc:	d99ff0ef          	jal	ra,b54 <divide>
     dc0:	fca42e23          	sw	a0,-36(s0)
     dc4:	fec42783          	lw	a5,-20(s0)
     dc8:	00178793          	addi	a5,a5,1
     dcc:	fef42623          	sw	a5,-20(s0)
     dd0:	fdc42783          	lw	a5,-36(s0)
     dd4:	fe0790e3          	bnez	a5,db4 <count_digits+0x1c>
     dd8:	fec42783          	lw	a5,-20(s0)
     ddc:	00078513          	mv	a0,a5
     de0:	02c12083          	lw	ra,44(sp)
     de4:	02812403          	lw	s0,40(sp)
     de8:	03010113          	addi	sp,sp,48
     dec:	00008067          	ret

00000df0 <__mulsi3>:
     df0:	fd010113          	addi	sp,sp,-48
     df4:	02812623          	sw	s0,44(sp)
     df8:	03010413          	addi	s0,sp,48
     dfc:	fca42e23          	sw	a0,-36(s0)
     e00:	fcb42c23          	sw	a1,-40(s0)
     e04:	fe042623          	sw	zero,-20(s0)
     e08:	fd842783          	lw	a5,-40(s0)
     e0c:	0007de63          	bgez	a5,e28 <__mulsi3+0x38>
     e10:	fdc42783          	lw	a5,-36(s0)
     e14:	40f007b3          	neg	a5,a5
     e18:	fcf42e23          	sw	a5,-36(s0)
     e1c:	fd842783          	lw	a5,-40(s0)
     e20:	40f007b3          	neg	a5,a5
     e24:	fcf42c23          	sw	a5,-40(s0)
     e28:	fe042423          	sw	zero,-24(s0)
     e2c:	0200006f          	j	e4c <__mulsi3+0x5c>
     e30:	fec42703          	lw	a4,-20(s0)
     e34:	fdc42783          	lw	a5,-36(s0)
     e38:	00f707b3          	add	a5,a4,a5
     e3c:	fef42623          	sw	a5,-20(s0)
     e40:	fe842783          	lw	a5,-24(s0)
     e44:	00178793          	addi	a5,a5,1
     e48:	fef42423          	sw	a5,-24(s0)
     e4c:	fe842703          	lw	a4,-24(s0)
     e50:	fd842783          	lw	a5,-40(s0)
     e54:	fcf74ee3          	blt	a4,a5,e30 <__mulsi3+0x40>
     e58:	fec42783          	lw	a5,-20(s0)
     e5c:	00078513          	mv	a0,a5
     e60:	02c12403          	lw	s0,44(sp)
     e64:	03010113          	addi	sp,sp,48
     e68:	00008067          	ret

00000e6c <__divsi3>:
     e6c:	fd010113          	addi	sp,sp,-48
     e70:	02812623          	sw	s0,44(sp)
     e74:	03010413          	addi	s0,sp,48
     e78:	fca42e23          	sw	a0,-36(s0)
     e7c:	fcb42c23          	sw	a1,-40(s0)
     e80:	fe042623          	sw	zero,-20(s0)
     e84:	fdc42703          	lw	a4,-36(s0)
     e88:	fd842783          	lw	a5,-40(s0)
     e8c:	00f75663          	ble	a5,a4,e98 <__divsi3+0x2c>
     e90:	fec42783          	lw	a5,-20(s0)
     e94:	0240006f          	j	eb8 <__divsi3+0x4c>
     e98:	fdc42703          	lw	a4,-36(s0)
     e9c:	fd842783          	lw	a5,-40(s0)
     ea0:	40f707b3          	sub	a5,a4,a5
     ea4:	fcf42e23          	sw	a5,-36(s0)
     ea8:	fec42783          	lw	a5,-20(s0)
     eac:	00178793          	addi	a5,a5,1
     eb0:	fef42623          	sw	a5,-20(s0)
     eb4:	fd1ff06f          	j	e84 <__divsi3+0x18>
     eb8:	00078513          	mv	a0,a5
     ebc:	02c12403          	lw	s0,44(sp)
     ec0:	03010113          	addi	sp,sp,48
     ec4:	00008067          	ret

00000ec8 <__udivsi3>:
     ec8:	fd010113          	addi	sp,sp,-48
     ecc:	02812623          	sw	s0,44(sp)
     ed0:	03010413          	addi	s0,sp,48
     ed4:	fca42e23          	sw	a0,-36(s0)
     ed8:	fcb42c23          	sw	a1,-40(s0)
     edc:	fe042623          	sw	zero,-20(s0)
     ee0:	fdc42703          	lw	a4,-36(s0)
     ee4:	fd842783          	lw	a5,-40(s0)
     ee8:	00f75663          	ble	a5,a4,ef4 <__udivsi3+0x2c>
     eec:	fec42783          	lw	a5,-20(s0)
     ef0:	0240006f          	j	f14 <__udivsi3+0x4c>
     ef4:	fdc42703          	lw	a4,-36(s0)
     ef8:	fd842783          	lw	a5,-40(s0)
     efc:	40f707b3          	sub	a5,a4,a5
     f00:	fcf42e23          	sw	a5,-36(s0)
     f04:	fec42783          	lw	a5,-20(s0)
     f08:	00178793          	addi	a5,a5,1
     f0c:	fef42623          	sw	a5,-20(s0)
     f10:	fd1ff06f          	j	ee0 <__udivsi3+0x18>
     f14:	00078513          	mv	a0,a5
     f18:	02c12403          	lw	s0,44(sp)
     f1c:	03010113          	addi	sp,sp,48
     f20:	00008067          	ret

00000f24 <__modsi3>:
     f24:	fe010113          	addi	sp,sp,-32
     f28:	00812e23          	sw	s0,28(sp)
     f2c:	02010413          	addi	s0,sp,32
     f30:	fea42623          	sw	a0,-20(s0)
     f34:	feb42423          	sw	a1,-24(s0)
     f38:	fe842703          	lw	a4,-24(s0)
     f3c:	fec42783          	lw	a5,-20(s0)
     f40:	00e7d663          	ble	a4,a5,f4c <__modsi3+0x28>
     f44:	fec42783          	lw	a5,-20(s0)
     f48:	0180006f          	j	f60 <__modsi3+0x3c>
     f4c:	fec42703          	lw	a4,-20(s0)
     f50:	fe842783          	lw	a5,-24(s0)
     f54:	40f707b3          	sub	a5,a4,a5
     f58:	fef42623          	sw	a5,-20(s0)
     f5c:	fddff06f          	j	f38 <__modsi3+0x14>
     f60:	00078513          	mv	a0,a5
     f64:	01c12403          	lw	s0,28(sp)
     f68:	02010113          	addi	sp,sp,32
     f6c:	00008067          	ret

00000f70 <print>:
     f70:	fd010113          	addi	sp,sp,-48
     f74:	02812623          	sw	s0,44(sp)
     f78:	03010413          	addi	s0,sp,48
     f7c:	fca42e23          	sw	a0,-36(s0)
     f80:	fe042623          	sw	zero,-20(s0)
     f84:	fdc42783          	lw	a5,-36(s0)
     f88:	fec42703          	lw	a4,-20(s0)
     f8c:	00000713          	li	a4,0
     f90:	aaaaa737          	lui	a4,0xaaaaa
     f94:	00f72423          	sw	a5,8(a4) # aaaaa008 <_sp0+0xaaaa7f08>
     f98:	00000013          	nop
     f9c:	02c12403          	lw	s0,44(sp)
     fa0:	03010113          	addi	sp,sp,48
     fa4:	00008067          	ret

00000fa8 <zero_counter>:
     fa8:	fe010113          	addi	sp,sp,-32
     fac:	00812e23          	sw	s0,28(sp)
     fb0:	02010413          	addi	s0,sp,32
     fb4:	aaaaa7b7          	lui	a5,0xaaaaa
     fb8:	70478793          	addi	a5,a5,1796 # aaaaa704 <_sp0+0xaaaa8604>
     fbc:	fef42623          	sw	a5,-20(s0)
     fc0:	fec42783          	lw	a5,-20(s0)
     fc4:	00100713          	li	a4,1
     fc8:	00e78023          	sb	a4,0(a5)
     fcc:	00000013          	nop
     fd0:	01c12403          	lw	s0,28(sp)
     fd4:	02010113          	addi	sp,sp,32
     fd8:	00008067          	ret

00000fdc <overflow_counter>:
     fdc:	fe010113          	addi	sp,sp,-32
     fe0:	00812e23          	sw	s0,28(sp)
     fe4:	02010413          	addi	s0,sp,32
     fe8:	aaaaa7b7          	lui	a5,0xaaaaa
     fec:	70478793          	addi	a5,a5,1796 # aaaaa704 <_sp0+0xaaaa8604>
     ff0:	fef42623          	sw	a5,-20(s0)
     ff4:	fec42783          	lw	a5,-20(s0)
     ff8:	0007c783          	lbu	a5,0(a5)
     ffc:	0ff7f793          	andi	a5,a5,255
    1000:	00078513          	mv	a0,a5
    1004:	01c12403          	lw	s0,28(sp)
    1008:	02010113          	addi	sp,sp,32
    100c:	00008067          	ret

00001010 <read_counter>:
    1010:	fe010113          	addi	sp,sp,-32
    1014:	00812e23          	sw	s0,28(sp)
    1018:	02010413          	addi	s0,sp,32
    101c:	aaaaa7b7          	lui	a5,0xaaaaa
    1020:	70078793          	addi	a5,a5,1792 # aaaaa700 <_sp0+0xaaaa8600>
    1024:	fef42623          	sw	a5,-20(s0)
    1028:	fec42783          	lw	a5,-20(s0)
    102c:	0007a783          	lw	a5,0(a5)
    1030:	00078513          	mv	a0,a5
    1034:	01c12403          	lw	s0,28(sp)
    1038:	02010113          	addi	sp,sp,32
    103c:	00008067          	ret

00001040 <set_CRAS>:
    1040:	fd010113          	addi	sp,sp,-48
    1044:	02812623          	sw	s0,44(sp)
    1048:	03010413          	addi	s0,sp,48
    104c:	00050793          	mv	a5,a0
    1050:	fcf40fa3          	sb	a5,-33(s0)
    1054:	aaaaa7b7          	lui	a5,0xaaaaa
    1058:	60078793          	addi	a5,a5,1536 # aaaaa600 <_sp0+0xaaaa8500>
    105c:	fef42623          	sw	a5,-20(s0)
    1060:	fec42783          	lw	a5,-20(s0)
    1064:	fdf44703          	lbu	a4,-33(s0)
    1068:	00e78023          	sb	a4,0(a5)
    106c:	00000013          	nop
    1070:	02c12403          	lw	s0,44(sp)
    1074:	03010113          	addi	sp,sp,48
    1078:	00008067          	ret

0000107c <set_key_word>:
    107c:	fd010113          	addi	sp,sp,-48
    1080:	02812623          	sw	s0,44(sp)
    1084:	03010413          	addi	s0,sp,48
    1088:	fca42e23          	sw	a0,-36(s0)
    108c:	aaaaa7b7          	lui	a5,0xaaaaa
    1090:	60478793          	addi	a5,a5,1540 # aaaaa604 <_sp0+0xaaaa8504>
    1094:	fef42623          	sw	a5,-20(s0)
    1098:	fdc42783          	lw	a5,-36(s0)
    109c:	0007a703          	lw	a4,0(a5)
    10a0:	fec42783          	lw	a5,-20(s0)
    10a4:	00e7a023          	sw	a4,0(a5)
    10a8:	fec42783          	lw	a5,-20(s0)
    10ac:	00478793          	addi	a5,a5,4
    10b0:	fdc42703          	lw	a4,-36(s0)
    10b4:	00472703          	lw	a4,4(a4)
    10b8:	00e7a023          	sw	a4,0(a5)
    10bc:	fec42783          	lw	a5,-20(s0)
    10c0:	00878793          	addi	a5,a5,8
    10c4:	fdc42703          	lw	a4,-36(s0)
    10c8:	00872703          	lw	a4,8(a4)
    10cc:	00e7a023          	sw	a4,0(a5)
    10d0:	fec42783          	lw	a5,-20(s0)
    10d4:	00c78793          	addi	a5,a5,12
    10d8:	fdc42703          	lw	a4,-36(s0)
    10dc:	00c72703          	lw	a4,12(a4)
    10e0:	00e7a023          	sw	a4,0(a5)
    10e4:	00000013          	nop
    10e8:	02c12403          	lw	s0,44(sp)
    10ec:	03010113          	addi	sp,sp,48
    10f0:	00008067          	ret
